; ModuleID = '27/1417.c'
source_filename = "27/1417.c"
target datalayout = "e-m:e-p270:32:32-p271:32:32-p272:64:64-i64:64-f80:128-n8:16:32:64-S128"
target triple = "x86_64-pc-linux-gnu"

@.str = private unnamed_addr constant [3 x i8] c"%d\00", align 1
@.str.1 = private unnamed_addr constant [12 x i8] c"%lf %lf %lf\00", align 1
@.str.2 = private unnamed_addr constant [19 x i8] c"x1=%.5lf;x2=%.5lf\0A\00", align 1
@.str.3 = private unnamed_addr constant [13 x i8] c"x1=x2=%.5lf\0A\00", align 1
@.str.4 = private unnamed_addr constant [33 x i8] c"x1=%.5lf+%.5lfi;x2=%.5lf-%.5lfi\0A\00", align 1

; Function Attrs: noinline nounwind uwtable
define dso_local i32 @main(i32 %0, i8** %1) #0 {
  %3 = alloca i32, align 4
  %4 = alloca i32, align 4
  %5 = alloca i8**, align 8
  %6 = alloca i32, align 4
  %7 = alloca i32, align 4
  %8 = alloca double, align 8
  %9 = alloca double, align 8
  %10 = alloca double, align 8
  %11 = alloca double, align 8
  %12 = alloca double, align 8
  %13 = alloca double, align 8
  %14 = alloca double, align 8
  %15 = alloca double, align 8
  store i32 0, i32* %3, align 4
  store i32 %0, i32* %4, align 4
  store i8** %1, i8*** %5, align 8
  %16 = call i32 (i8*, ...) @__isoc99_scanf(i8* getelementptr inbounds ([3 x i8], [3 x i8]* @.str, i64 0, i64 0), i32* %6)
  store i32 0, i32* %7, align 4
  br label %17

17:                                               ; preds = %85, %2
  %18 = load i32, i32* %7, align 4
  %19 = load i32, i32* %6, align 4
  %20 = icmp slt i32 %18, %19
  br i1 %20, label %21, label %88

21:                                               ; preds = %17
  %22 = call i32 (i8*, ...) @__isoc99_scanf(i8* getelementptr inbounds ([12 x i8], [12 x i8]* @.str.1, i64 0, i64 0), double* %8, double* %9, double* %10)
  %23 = load double, double* %9, align 8
  %24 = load double, double* %9, align 8
  %25 = fmul double %23, %24
  %26 = load double, double* %8, align 8
  %27 = fmul double 4.000000e+00, %26
  %28 = load double, double* %10, align 8
  %29 = fmul double %27, %28
  %30 = fsub double %25, %29
  store double %30, double* %13, align 8
  %31 = load double, double* %13, align 8
  %32 = fcmp ogt double %31, 0.000000e+00
  br i1 %32, label %33, label %51

33:                                               ; preds = %21
  %34 = load double, double* %9, align 8
  %35 = fneg double %34
  %36 = load double, double* %13, align 8
  %37 = call double @sqrt(double %36) #4
  %38 = fadd double %35, %37
  %39 = load double, double* %8, align 8
  %40 = fmul double 2.000000e+00, %39
  %41 = fdiv double %38, %40
  store double %41, double* %11, align 8
  %42 = load double, double* %9, align 8
  %43 = fneg double %42
  %44 = load double, double* %13, align 8
  %45 = call double @sqrt(double %44) #4
  %46 = fsub double %43, %45
  %47 = load double, double* %8, align 8
  %48 = fmul double 2.000000e+00, %47
  %49 = fdiv double %46, %48
  store double %49, double* %12, align 8
  %50 = call i32 (i8*, ...) @printf(i8* getelementptr inbounds ([19 x i8], [19 x i8]* @.str.2, i64 0, i64 0), double %41, double %49)
  br label %84

51:                                               ; preds = %21
  %52 = load double, double* %13, align 8
  %53 = fcmp oeq double %52, 0.000000e+00
  br i1 %53, label %54, label %61

54:                                               ; preds = %51
  %55 = load double, double* %9, align 8
  %56 = fneg double %55
  %57 = load double, double* %8, align 8
  %58 = fmul double 2.000000e+00, %57
  %59 = fdiv double %56, %58
  store double %59, double* %11, align 8
  %60 = call i32 (i8*, ...) @printf(i8* getelementptr inbounds ([13 x i8], [13 x i8]* @.str.3, i64 0, i64 0), double %59)
  br label %83

61:                                               ; preds = %51
  %62 = load double, double* %13, align 8
  %63 = fcmp olt double %62, 0.000000e+00
  br i1 %63, label %64, label %82

64:                                               ; preds = %61
  %65 = load double, double* %13, align 8
  %66 = call double @llvm.fabs.f64(double %65)
  store double %66, double* %13, align 8
  %67 = load double, double* %9, align 8
  %68 = fneg double %67
  %69 = load double, double* %8, align 8
  %70 = fmul double 2.000000e+00, %69
  %71 = fdiv double %68, %70
  store double %71, double* %14, align 8
  %72 = load double, double* %13, align 8
  %73 = call double @sqrt(double %72) #4
  %74 = load double, double* %8, align 8
  %75 = fmul double 2.000000e+00, %74
  %76 = fdiv double %73, %75
  store double %76, double* %15, align 8
  %77 = load double, double* %14, align 8
  %78 = load double, double* %15, align 8
  %79 = load double, double* %14, align 8
  %80 = load double, double* %15, align 8
  %81 = call i32 (i8*, ...) @printf(i8* getelementptr inbounds ([33 x i8], [33 x i8]* @.str.4, i64 0, i64 0), double %77, double %78, double %79, double %80)
  br label %82

82:                                               ; preds = %64, %61
  br label %83

83:                                               ; preds = %82, %54
  br label %84

84:                                               ; preds = %83, %33
  br label %85

85:                                               ; preds = %84
  %86 = load i32, i32* %7, align 4
  %87 = add nsw i32 %86, 1
  store i32 %87, i32* %7, align 4
  br label %17

88:                                               ; preds = %17
  ret i32 0
}

declare dso_local i32 @__isoc99_scanf(i8*, ...) #1

declare dso_local i32 @printf(i8*, ...) #1

; Function Attrs: nounwind
declare dso_local double @sqrt(double) #2

; Function Attrs: nounwind readnone speculatable willreturn
declare double @llvm.fabs.f64(double) #3


!llvm.module.flags = !{!0}
!llvm.ident = !{!1}

!0 = !{i32 1, !"wchar_size", i32 4}
!1 = !{!"clang version 10.0.0-4ubuntu1 "}
